; ModuleID = '60/1338.c'
source_filename = "60/1338.c"
target datalayout = "e-m:e-p270:32:32-p271:32:32-p272:64:64-i64:64-f80:128-n8:16:32:64-S128"
target triple = "x86_64-pc-linux-gnu"

@.str = private unnamed_addr constant [3 x i8] c"%d\00", align 1
@.str.1 = private unnamed_addr constant [7 x i8] c"%d %d\0A\00", align 1
@.str.2 = private unnamed_addr constant [6 x i8] c"empty\00", align 1

; Function Attrs: noinline nounwind uwtable
define dso_local i32 @main() #0 {
  %1 = alloca i32, align 4
  %2 = alloca i32, align 4
  %3 = alloca i32, align 4
  %4 = alloca i32, align 4
  %5 = alloca i32, align 4
  %6 = alloca i32, align 4
  store i32 0, i32* %1, align 4
  store i32 0, i32* %6, align 4
  %7 = load i32, i32* %3, align 4
  %8 = add nsw i32 %7, 2
  store i32 %8, i32* %4, align 4
  %9 = call i32 (i8*, ...) @__isoc99_scanf(i8* getelementptr inbounds ([3 x i8], [3 x i8]* @.str, i64 0, i64 0), i32* %2)
  store i32 1, i32* %3, align 4
  br label %10

10:                                               ; preds = %59, %0
  %11 = load i32, i32* %3, align 4
  %12 = load i32, i32* %2, align 4
  %13 = sub nsw i32 %12, 2
  %14 = icmp sle i32 %11, %13
  br i1 %14, label %15, label %62

15:                                               ; preds = %10
  %16 = load i32, i32* %3, align 4
  %17 = add nsw i32 %16, 2
  store i32 %17, i32* %4, align 4
  %18 = load i32, i32* %3, align 4
  %19 = icmp eq i32 %18, 1
  br i1 %19, label %20, label %21

20:                                               ; preds = %15
  br label %59

21:                                               ; preds = %15
  store i32 2, i32* %5, align 4
  br label %22

22:                                               ; preds = %34, %21
  %23 = load i32, i32* %3, align 4
  %24 = load i32, i32* %5, align 4
  %25 = srem i32 %23, %24
  %26 = icmp eq i32 %25, 0
  br i1 %26, label %32, label %27

27:                                               ; preds = %22
  %28 = load i32, i32* %4, align 4
  %29 = load i32, i32* %5, align 4
  %30 = srem i32 %28, %29
  %31 = icmp eq i32 %30, 0
  br i1 %31, label %32, label %33

32:                                               ; preds = %27, %22
  br label %37

33:                                               ; preds = %27
  br label %34

34:                                               ; preds = %33
  %35 = load i32, i32* %5, align 4
  %36 = add nsw i32 %35, 1
  store i32 %36, i32* %5, align 4
  br label %22

37:                                               ; preds = %32
  %38 = load i32, i32* %5, align 4
  %39 = load i32, i32* %3, align 4
  %40 = icmp eq i32 %38, %39
  br i1 %40, label %41, label %58

41:                                               ; preds = %37
  %42 = load i32, i32* %4, align 4
  %43 = load i32, i32* %5, align 4
  %44 = srem i32 %42, %43
  %45 = icmp ne i32 %44, 0
  br i1 %45, label %46, label %58

46:                                               ; preds = %41
  %47 = load i32, i32* %4, align 4
  %48 = load i32, i32* %5, align 4
  %49 = add nsw i32 %48, 1
  %50 = srem i32 %47, %49
  %51 = icmp ne i32 %50, 0
  br i1 %51, label %52, label %58

52:                                               ; preds = %46
  %53 = load i32, i32* %6, align 4
  %54 = add nsw i32 %53, 1
  store i32 %54, i32* %6, align 4
  %55 = load i32, i32* %3, align 4
  %56 = load i32, i32* %4, align 4
  %57 = call i32 (i8*, ...) @printf(i8* getelementptr inbounds ([7 x i8], [7 x i8]* @.str.1, i64 0, i64 0), i32 %55, i32 %56)
  br label %58

58:                                               ; preds = %52, %46, %41, %37
  br label %59

59:                                               ; preds = %58, %20
  %60 = load i32, i32* %3, align 4
  %61 = add nsw i32 %60, 1
  store i32 %61, i32* %3, align 4
  br label %10

62:                                               ; preds = %10
  %63 = load i32, i32* %6, align 4
  %64 = icmp eq i32 %63, 0
  br i1 %64, label %65, label %67

65:                                               ; preds = %62
  %66 = call i32 (i8*, ...) @printf(i8* getelementptr inbounds ([6 x i8], [6 x i8]* @.str.2, i64 0, i64 0))
  br label %67

67:                                               ; preds = %65, %62
  %68 = load i32, i32* %1, align 4
  ret i32 %68
}

declare dso_local i32 @__isoc99_scanf(i8*, ...) #1

declare dso_local i32 @printf(i8*, ...) #1


!llvm.module.flags = !{!0}
!llvm.ident = !{!1}

!0 = !{i32 1, !"wchar_size", i32 4}
!1 = !{!"clang version 10.0.0-4ubuntu1 "}
