; ModuleID = 'source-C-CXX/59/1338.c'
source_filename = "source-C-CXX/59/1338.c"
target datalayout = "e-m:e-p270:32:32-p271:32:32-p272:64:64-i64:64-f80:128-n8:16:32:64-S128"
target triple = "x86_64-pc-linux-gnu"

@.str = private unnamed_addr constant [3 x i8] c"%d\00", align 1
@.str.1 = private unnamed_addr constant [7 x i8] c"%d %d\0A\00", align 1
@.str.2 = private unnamed_addr constant [6 x i8] c"empty\00", align 1

; Function Attrs: nofree nounwind sspstrong uwtable
define dso_local i32 @main() local_unnamed_addr #0 {
  %1 = alloca i32, align 4
  %2 = bitcast i32* %1 to i8*
  call void @llvm.lifetime.start.p0i8(i64 4, i8* nonnull %2) #3
  %3 = call i32 (i8*, ...) @__isoc99_scanf(i8* getelementptr inbounds ([3 x i8], [3 x i8]* @.str, i64 0, i64 0), i32* nonnull %1)
  %4 = load i32, i32* %1, align 4, !tbaa !5
  %5 = icmp slt i32 %4, 3
  br i1 %5, label %45, label %6

6:                                                ; preds = %0, %37
  %7 = phi i32 [ %38, %37 ], [ %4, %0 ]
  %8 = phi i32 [ %39, %37 ], [ 0, %0 ]
  %9 = phi i32 [ %40, %37 ], [ 1, %0 ]
  %10 = add nuw nsw i32 %9, 2
  %11 = icmp eq i32 %9, 1
  br i1 %11, label %37, label %12

12:                                               ; preds = %6
  %13 = and i32 %9, 1
  %14 = icmp eq i32 %13, 0
  br i1 %14, label %23, label %15

15:                                               ; preds = %12, %19
  %16 = phi i32 [ %20, %19 ], [ 2, %12 ]
  %17 = urem i32 %10, %16
  %18 = icmp eq i32 %17, 0
  br i1 %18, label %23, label %19

19:                                               ; preds = %15
  %20 = add nuw nsw i32 %16, 1
  %21 = urem i32 %9, %20
  %22 = icmp eq i32 %21, 0
  br i1 %22, label %23, label %15

23:                                               ; preds = %15, %19, %12
  %24 = phi i32 [ 2, %12 ], [ %20, %19 ], [ %16, %15 ]
  %25 = icmp eq i32 %24, %9
  br i1 %25, label %26, label %37

26:                                               ; preds = %23
  %27 = urem i32 %10, %9
  %28 = icmp eq i32 %27, 0
  br i1 %28, label %37, label %29

29:                                               ; preds = %26
  %30 = add nuw nsw i32 %9, 1
  %31 = urem i32 %10, %30
  %32 = icmp eq i32 %31, 0
  br i1 %32, label %37, label %33

33:                                               ; preds = %29
  %34 = add nsw i32 %8, 1
  %35 = call i32 (i8*, ...) @printf(i8* nonnull dereferenceable(1) getelementptr inbounds ([7 x i8], [7 x i8]* @.str.1, i64 0, i64 0), i32 %9, i32 %10)
  %36 = load i32, i32* %1, align 4, !tbaa !5
  br label %37

37:                                               ; preds = %23, %26, %29, %33, %6
  %38 = phi i32 [ %7, %6 ], [ %36, %33 ], [ %7, %29 ], [ %7, %26 ], [ %7, %23 ]
  %39 = phi i32 [ %8, %6 ], [ %34, %33 ], [ %8, %29 ], [ %8, %26 ], [ %8, %23 ]
  %40 = add nuw nsw i32 %9, 1
  %41 = add nsw i32 %38, -2
  %42 = icmp slt i32 %9, %41
  br i1 %42, label %6, label %43, !llvm.loop !9

43:                                               ; preds = %37
  %44 = icmp eq i32 %39, 0
  br i1 %44, label %45, label %47

45:                                               ; preds = %0, %43
  %46 = call i32 (i8*, ...) @printf(i8* nonnull dereferenceable(1) getelementptr inbounds ([6 x i8], [6 x i8]* @.str.2, i64 0, i64 0))
  br label %47

47:                                               ; preds = %45, %43
  call void @llvm.lifetime.end.p0i8(i64 4, i8* nonnull %2) #3
  ret i32 0
}

; Function Attrs: argmemonly mustprogress nofree nosync nounwind willreturn
declare void @llvm.lifetime.start.p0i8(i64 immarg, i8* nocapture) #1

; Function Attrs: nofree nounwind
declare noundef i32 @__isoc99_scanf(i8* nocapture noundef readonly, ...) local_unnamed_addr #2

; Function Attrs: nofree nounwind
declare noundef i32 @printf(i8* nocapture noundef readonly, ...) local_unnamed_addr #2

; Function Attrs: argmemonly mustprogress nofree nosync nounwind willreturn
declare void @llvm.lifetime.end.p0i8(i64 immarg, i8* nocapture) #1


!llvm.module.flags = !{!0, !1, !2, !3}
!llvm.ident = !{!4}

!0 = !{i32 1, !"wchar_size", i32 4}
!1 = !{i32 7, !"PIC Level", i32 2}
!2 = !{i32 7, !"PIE Level", i32 2}
!3 = !{i32 7, !"uwtable", i32 1}
!4 = !{!"clang version 13.0.0"}
!5 = !{!6, !6, i64 0}
!6 = !{!"int", !7, i64 0}
!7 = !{!"omnipotent char", !8, i64 0}
!8 = !{!"Simple C/C++ TBAA"}
!9 = distinct !{!9, !10}
!10 = !{!"llvm.loop.mustprogress"}
